target datalayout = "e-m:e-p270:32:32-p271:32:32-p272:64:64-i64:64-i128:128-f80:128-n8:16:32:64-S128"
target triple = "x86_64-pc-linux-gnu"

%struct.Expr = type { i32 }
%struct.ParseState = type { ptr, ptr, i32, i32, ptr, ptr, ptr, ptr, ptr, ptr, i8, ptr, ptr, ptr, ptr, ptr, ptr, i8, ptr, i32, i32, ptr, ptr, i8, i8, ptr, i8, i8, i8, i8, i8, ptr, ptr, ptr, ptr, ptr, ptr }
%struct.Query = type { i32, i32, i32, i64, i8, ptr, i32, i8, i8, i8, i8, i8, i8, i8, i8, i8, i8, i8, ptr, ptr, ptr, ptr, ptr, i32, ptr, ptr, i32, ptr, ptr, ptr, ptr, ptr, i8, ptr, ptr, ptr, ptr, ptr, ptr, ptr, i32, ptr, ptr, ptr, ptr, i32, i32 }
%struct.substitute_grouped_columns_context = type { ptr, ptr, i8, ptr, ptr, ptr, i8, ptr, i32, i8 }
%struct.Var = type { %struct.Expr, i32, i16, i32, i32, i32, ptr, i32, i32, i32, i16, i32 }
%struct.ParseNamespaceItem = type { ptr, ptr, i32, ptr, ptr, i8, i8, i8, i8, i32 }
%struct.ParseNamespaceColumn = type { i32, i16, i32, i32, i32, i32, i32, i16, i8 }

; Function Attrs: nounwind uwtable
define internal ptr @buildGroupedVar(i32 noundef %0, i32 noundef %1, ptr noundef %2) #0 {
  %4 = alloca i32, align 4
  %5 = alloca i32, align 4
  %6 = alloca ptr, align 8
  %7 = alloca ptr, align 8
  %8 = alloca ptr, align 8
  %9 = alloca ptr, align 8
  store i32 %0, ptr %4, align 4
  store i32 %1, ptr %5, align 4
  store ptr %2, ptr %6, align 8
  call void @llvm.lifetime.start.p0(i64 8, ptr %7) #7
  call void @llvm.lifetime.start.p0(i64 8, ptr %8) #7
  %10 = load ptr, ptr %6, align 8
  %11 = getelementptr inbounds nuw %struct.substitute_grouped_columns_context, ptr %10, i32 0, i32 0
  %12 = load ptr, ptr %11, align 8
  %13 = getelementptr inbounds nuw %struct.ParseState, ptr %12, i32 0, i32 16
  %14 = load ptr, ptr %13, align 8
  store ptr %14, ptr %8, align 8
  call void @llvm.lifetime.start.p0(i64 8, ptr %9) #7
  %15 = load ptr, ptr %8, align 8
  %16 = getelementptr inbounds nuw %struct.ParseNamespaceItem, ptr %15, i32 0, i32 4
  %17 = load ptr, ptr %16, align 8
  %18 = load i32, ptr %4, align 4
  %19 = sext i32 %18 to i64
  %20 = getelementptr inbounds %struct.ParseNamespaceColumn, ptr %17, i64 %19
  %21 = getelementptr inbounds %struct.ParseNamespaceColumn, ptr %20, i64 -1
  store ptr %21, ptr %9, align 8
  %22 = load ptr, ptr %9, align 8
  %23 = getelementptr inbounds nuw %struct.ParseNamespaceColumn, ptr %22, i32 0, i32 0
  %24 = load i32, ptr %23, align 4
  %25 = load ptr, ptr %9, align 8
  %26 = getelementptr inbounds nuw %struct.ParseNamespaceColumn, ptr %25, i32 0, i32 1
  %27 = load i16, ptr %26, align 4
  %28 = load ptr, ptr %9, align 8
  %29 = getelementptr inbounds nuw %struct.ParseNamespaceColumn, ptr %28, i32 0, i32 2
  %30 = load i32, ptr %29, align 4
  %31 = load ptr, ptr %9, align 8
  %32 = getelementptr inbounds nuw %struct.ParseNamespaceColumn, ptr %31, i32 0, i32 3
  %33 = load i32, ptr %32, align 4
  %34 = load ptr, ptr %9, align 8
  %35 = getelementptr inbounds nuw %struct.ParseNamespaceColumn, ptr %34, i32 0, i32 4
  %36 = load i32, ptr %35, align 4
  %37 = load ptr, ptr %6, align 8
  %38 = getelementptr inbounds nuw %struct.substitute_grouped_columns_context, ptr %37, i32 0, i32 8
  %39 = load i32, ptr %38, align 8
  %40 = call ptr @makeVar(i32 noundef %24, i16 noundef signext %27, i32 noundef %30, i32 noundef %33, i32 noundef %36, i32 noundef %39)
  store ptr %40, ptr %7, align 8
  %41 = load ptr, ptr %9, align 8
  %42 = getelementptr inbounds nuw %struct.ParseNamespaceColumn, ptr %41, i32 0, i32 6
  %43 = load i32, ptr %42, align 4
  %44 = load ptr, ptr %7, align 8
  %45 = getelementptr inbounds nuw %struct.Var, ptr %44, i32 0, i32 9
  store i32 %43, ptr %45, align 8
  %46 = load ptr, ptr %9, align 8
  %47 = getelementptr inbounds nuw %struct.ParseNamespaceColumn, ptr %46, i32 0, i32 7
  %48 = load i16, ptr %47, align 4
  %49 = load ptr, ptr %7, align 8
  %50 = getelementptr inbounds nuw %struct.Var, ptr %49, i32 0, i32 10
  store i16 %48, ptr %50, align 4
  %51 = load ptr, ptr %6, align 8
  %52 = getelementptr inbounds nuw %struct.substitute_grouped_columns_context, ptr %51, i32 0, i32 1
  %53 = load ptr, ptr %52, align 8
  %54 = getelementptr inbounds nuw %struct.Query, ptr %53, i32 0, i32 33
  %55 = load ptr, ptr %54, align 8
  %56 = icmp ne ptr %55, null
  br i1 %56, label %57, label %73

57:                                               ; preds = %3
  %58 = load ptr, ptr %6, align 8
  %59 = getelementptr inbounds nuw %struct.substitute_grouped_columns_context, ptr %58, i32 0, i32 5
  %60 = load ptr, ptr %59, align 8
  %61 = load i32, ptr %5, align 4
  %62 = call zeroext i1 @list_member_int(ptr noundef %60, i32 noundef %61)
  br i1 %62, label %73, label %63

63:                                               ; preds = %57
  %64 = load ptr, ptr %7, align 8
  %65 = getelementptr inbounds nuw %struct.Var, ptr %64, i32 0, i32 6
  %66 = load ptr, ptr %65, align 8
  %67 = load ptr, ptr %8, align 8
  %68 = getelementptr inbounds nuw %struct.ParseNamespaceItem, ptr %67, i32 0, i32 2
  %69 = load i32, ptr %68, align 8
  %70 = call ptr @bms_add_member(ptr noundef %66, i32 noundef %69)
  %71 = load ptr, ptr %7, align 8
  %72 = getelementptr inbounds nuw %struct.Var, ptr %71, i32 0, i32 6
  store ptr %70, ptr %72, align 8
  br label %73

73:                                               ; preds = %63, %57, %3
  %74 = load ptr, ptr %7, align 8
  call void @llvm.lifetime.end.p0(i64 8, ptr %9) #7
  call void @llvm.lifetime.end.p0(i64 8, ptr %8) #7
  call void @llvm.lifetime.end.p0(i64 8, ptr %7) #7
  ret ptr %74
}