; Function Attrs: nounwind uwtable
define internal fastcc ptr @buildGroupedVar(i32 noundef %0, i32 noundef %1, ptr noundef readonly captures(none) %2) unnamed_addr #0 {
  %4 = load ptr, ptr %2, align 8
  %5 = getelementptr inbounds nuw i8, ptr %4, i64 120
  %6 = load ptr, ptr %5, align 8
  %7 = getelementptr inbounds nuw i8, ptr %6, i64 32
  %8 = load ptr, ptr %7, align 8
  %9 = sext i32 %0 to i64
  %10 = getelementptr inbounds %struct.ParseNamespaceColumn, ptr %8, i64 %9
  %11 = getelementptr inbounds i8, ptr %10, i64 -32
  %12 = load i32, ptr %11, align 4
  %13 = getelementptr inbounds i8, ptr %10, i64 -28
  %14 = load i16, ptr %13, align 4
  %15 = getelementptr inbounds i8, ptr %10, i64 -24
  %16 = load i32, ptr %15, align 4
  %17 = getelementptr inbounds i8, ptr %10, i64 -20
  %18 = load i32, ptr %17, align 4
  %19 = getelementptr inbounds i8, ptr %10, i64 -16
  %20 = load i32, ptr %19, align 4
  %21 = getelementptr inbounds nuw i8, ptr %2, i64 64
  %22 = load i32, ptr %21, align 8
  %23 = tail call ptr @makeVar(i32 noundef %12, i16 noundef signext %14, i32 noundef %16, i32 noundef %18, i32 noundef %20, i32 noundef %22) #11
  %24 = getelementptr inbounds i8, ptr %10, i64 -8
  %25 = load i32, ptr %24, align 4
  %26 = getelementptr inbounds nuw i8, ptr %23, i64 40
  store i32 %25, ptr %26, align 8
  %27 = getelementptr inbounds i8, ptr %10, i64 -4
  %28 = load i16, ptr %27, align 4
  %29 = getelementptr inbounds nuw i8, ptr %23, i64 44
  store i16 %28, ptr %29, align 4
  %30 = getelementptr inbounds nuw i8, ptr %2, i64 8
  %31 = load ptr, ptr %30, align 8
  %32 = getelementptr inbounds nuw i8, ptr %31, i64 176
  %33 = load ptr, ptr %32, align 8
  %.not = icmp eq ptr %33, null
  br i1 %.not, label %44, label %34

34:                                               ; preds = %3
  %35 = getelementptr inbounds nuw i8, ptr %2, i64 40
  %36 = load ptr, ptr %35, align 8
  %37 = tail call zeroext i1 @list_member_int(ptr noundef %36, i32 noundef %1) #11
  br i1 %37, label %44, label %38

38:                                               ; preds = %34
  %39 = getelementptr inbounds nuw i8, ptr %23, i64 24
  %40 = load ptr, ptr %39, align 8
  %41 = getelementptr inbounds nuw i8, ptr %6, i64 16
  %42 = load i32, ptr %41, align 8
  %43 = tail call ptr @bms_add_member(ptr noundef %40, i32 noundef %42) #11
  store ptr %43, ptr %39, align 8
  br label %44

44:                                               ; preds = %38, %34, %3
  ret ptr %23
}